; Function Attrs: nofree norecurse nosync nounwind memory(argmem: read) uwtable
define i64 @lv_chart_get_cursor_point(ptr nocapture noundef readnone %0, ptr noundef readonly %1) local_unnamed_addr #4 {
  %.not = icmp eq ptr %1, null
  br i1 %.not, label %.preheader, label %3

.preheader:                                       ; preds = %2, %.preheader
  br label %.preheader

3:                                                ; preds = %2
  %.sroa.0.0.copyload = load i64, ptr %1, align 8
  ret i64 %.sroa.0.0.copyload
}